target datalayout = "e-m:e-p270:32:32-p271:32:32-p272:64:64-i64:64-i128:128-f80:128-n8:16:32:64-S128"
target triple = "x86_64-pc-linux-gnu"

%struct.pmix_cpuset_t = type { ptr, ptr }

; Function Attrs: nounwind uwtable
define i32 @pmix_bfrops_base_pack_cpuset(ptr noundef %0, ptr noundef %1, ptr noundef %2, i32 noundef %3, i16 noundef zeroext %4) #0 {
  %6 = alloca i32, align 4
  %7 = alloca ptr, align 8
  %8 = alloca ptr, align 8
  %9 = alloca ptr, align 8
  %10 = alloca i32, align 4
  %11 = alloca i16, align 2
  %12 = alloca ptr, align 8
  %13 = alloca i32, align 4
  %14 = alloca i32, align 4
  %15 = alloca i32, align 4
  store ptr %0, ptr %7, align 8, !tbaa !3
  store ptr %1, ptr %8, align 8, !tbaa !8
  store ptr %2, ptr %9, align 8, !tbaa !8
  store i32 %3, ptr %10, align 4, !tbaa !9
  store i16 %4, ptr %11, align 2, !tbaa !11
  call void @llvm.lifetime.start.p0(i64 8, ptr %12) #9
  %16 = load ptr, ptr %9, align 8, !tbaa !8
  store ptr %16, ptr %12, align 8, !tbaa !8
  call void @llvm.lifetime.start.p0(i64 4, ptr %13) #9
  call void @llvm.lifetime.start.p0(i64 4, ptr %14) #9
  store i32 0, ptr %13, align 4, !tbaa !9
  br label %17

17:                                               ; preds = %34, %5
  %18 = load i32, ptr %13, align 4, !tbaa !9
  %19 = load i32, ptr %10, align 4, !tbaa !9
  %20 = icmp slt i32 %18, %19
  br i1 %20, label %21, label %37

21:                                               ; preds = %17
  %22 = load ptr, ptr %8, align 8, !tbaa !8
  %23 = load ptr, ptr %12, align 8, !tbaa !8
  %24 = load i32, ptr %13, align 4, !tbaa !9
  %25 = sext i32 %24 to i64
  %26 = getelementptr inbounds %struct.pmix_cpuset_t, ptr %23, i64 %25
  %27 = load ptr, ptr %7, align 8, !tbaa !3
  %28 = call i32 @pmix_hwloc_pack_cpuset(ptr noundef %22, ptr noundef %26, ptr noundef %27)
  store i32 %28, ptr %14, align 4, !tbaa !9
  %29 = load i32, ptr %14, align 4, !tbaa !9
  %30 = icmp ne i32 0, %29
  br i1 %30, label %31, label %33

31:                                               ; preds = %21
  %32 = load i32, ptr %14, align 4, !tbaa !9
  store i32 %32, ptr %6, align 4
  store i32 1, ptr %15, align 4
  br label %38

33:                                               ; preds = %21
  br label %34

34:                                               ; preds = %33
  %35 = load i32, ptr %13, align 4, !tbaa !9
  %36 = add nsw i32 %35, 1
  store i32 %36, ptr %13, align 4, !tbaa !9
  br label %17, !llvm.loop !148

37:                                               ; preds = %17
  store i32 0, ptr %6, align 4
  store i32 1, ptr %15, align 4
  br label %38

38:                                               ; preds = %37, %31
  call void @llvm.lifetime.end.p0(i64 4, ptr %14) #9
  call void @llvm.lifetime.end.p0(i64 4, ptr %13) #9
  call void @llvm.lifetime.end.p0(i64 8, ptr %12) #9
  %39 = load i32, ptr %6, align 4
  ret i32 %39
}